target datalayout = "e-m:e-p270:32:32-p271:32:32-p272:64:64-i64:64-i128:128-f80:128-n8:16:32:64-S128"
target triple = "x86_64-pc-linux-gnu"

@proto_register_xmpp.ett_unknown_ptr = internal global [20 x ptr] zeroinitializer, align 16
@ett_unknown = hidden global [20 x i32] zeroinitializer, align 16
@.str.442 = private unnamed_addr constant [14 x i8] c"XMPP Protocol\00", align 1
@.str.443 = private unnamed_addr constant [5 x i8] c"XMPP\00", align 1
@.str.444 = private unnamed_addr constant [5 x i8] c"xmpp\00", align 1
@proto_xmpp = hidden global i32 0, align 4
@.str.445 = private unnamed_addr constant [10 x i8] c"desegment\00", align 1
@.str.446 = private unnamed_addr constant [25 x i8] c"Reassemble XMPP messages\00", align 1
@.str.447 = private unnamed_addr constant [173 x i8] c"Whether the XMPP dissector should reassemble messages. To use this option, you must also enable \22Allow subdissectors to reassemble TCP streams\22 in the TCP protocol settings\00", align 1
@xmpp_desegment = internal global i8 1, align 1
@xmpp_handle = internal global ptr null, align 8

; Function Attrs: null_pointer_is_valid sspstrong uwtable
define hidden void @proto_register_xmpp() #0 {
  %1 = alloca ptr, align 8
  %2 = alloca ptr, align 8
  %3 = alloca i32, align 4
  call void @llvm.lifetime.start.p0(i64 8, ptr %1) #7
  call void @llvm.lifetime.start.p0(i64 8, ptr %2) #7
  call void @llvm.lifetime.start.p0(i64 4, ptr %3) #7
  store i32 0, ptr %3, align 4
  br label %4

4:                                                ; preds = %14, %0
  %5 = load i32, ptr %3, align 4
  %6 = icmp slt i32 %5, 20
  br i1 %6, label %7, label %17

7:                                                ; preds = %4
  %8 = load i32, ptr %3, align 4
  %9 = sext i32 %8 to i64
  %10 = getelementptr [20 x i32], ptr @ett_unknown, i64 0, i64 %9
  %11 = load i32, ptr %3, align 4
  %12 = sext i32 %11 to i64
  %13 = getelementptr [20 x ptr], ptr @proto_register_xmpp.ett_unknown_ptr, i64 0, i64 %12
  store ptr %10, ptr %13, align 8
  br label %14

14:                                               ; preds = %7
  %15 = load i32, ptr %3, align 4
  %16 = add i32 %15, 1
  store i32 %16, ptr %3, align 4
  br label %4, !llvm.loop !6

17:                                               ; preds = %4
  %18 = call i32 @proto_register_protocol(ptr noundef @.str.442, ptr noundef @.str.443, ptr noundef @.str.444)
  store i32 %18, ptr @proto_xmpp, align 4
  %19 = load i32, ptr @proto_xmpp, align 4
  %20 = call ptr @prefs_register_protocol(i32 noundef %19, ptr noundef null)
  store ptr %20, ptr %1, align 8
  %21 = load ptr, ptr %1, align 8
  call void @prefs_register_bool_preference(ptr noundef %21, ptr noundef @.str.445, ptr noundef @.str.446, ptr noundef @.str.447, ptr noundef @xmpp_desegment)
  %22 = load i32, ptr @proto_xmpp, align 4
  call void @proto_register_field_array(i32 noundef %22, ptr noundef @proto_register_xmpp.hf, i32 noundef 149)
  call void @proto_register_subtree_array(ptr noundef @proto_register_xmpp.ett, i32 noundef 102)
  call void @proto_register_subtree_array(ptr noundef @proto_register_xmpp.ett_unknown_ptr, i32 noundef 20)
  %23 = load i32, ptr @proto_xmpp, align 4
  %24 = call ptr @expert_register_protocol(i32 noundef %23)
  store ptr %24, ptr %2, align 8
  %25 = load ptr, ptr %2, align 8
  call void @expert_register_field_array(ptr noundef %25, ptr noundef @proto_register_xmpp.ei, i32 noundef 13)
  %26 = load i32, ptr @proto_xmpp, align 4
  %27 = call ptr @register_dissector(ptr noundef @.str.444, ptr noundef @dissect_xmpp, i32 noundef %26)
  store ptr %27, ptr @xmpp_handle, align 8
  call void @xmpp_init_parsers()
  call void @llvm.lifetime.end.p0(i64 4, ptr %3) #7
  call void @llvm.lifetime.end.p0(i64 8, ptr %2) #7
  call void @llvm.lifetime.end.p0(i64 8, ptr %1) #7
  ret void
}