; Function Attrs: null_pointer_is_valid sspstrong uwtable
define hidden void @proto_register_xmpp() local_unnamed_addr #0 {
  br label %1

1:                                                ; preds = %0, %1
  %indvars.iv = phi i64 [ 0, %0 ], [ %indvars.iv.next, %1 ]
  %2 = getelementptr [20 x i32], ptr @ett_unknown, i64 0, i64 %indvars.iv
  %3 = getelementptr [20 x ptr], ptr @proto_register_xmpp.ett_unknown_ptr, i64 0, i64 %indvars.iv
  store ptr %2, ptr %3, align 8
  %indvars.iv.next = add nuw nsw i64 %indvars.iv, 1
  %exitcond.not = icmp eq i64 %indvars.iv.next, 20
  br i1 %exitcond.not, label %4, label %1, !llvm.loop !6

4:                                                ; preds = %1
  %5 = tail call i32 @proto_register_protocol(ptr noundef nonnull @.str.442, ptr noundef nonnull @.str.443, ptr noundef nonnull @.str.444)
  store i32 %5, ptr @proto_xmpp, align 4
  %6 = tail call ptr @prefs_register_protocol(i32 noundef %5, ptr noundef null)
  tail call void @prefs_register_bool_preference(ptr noundef %6, ptr noundef nonnull @.str.445, ptr noundef nonnull @.str.446, ptr noundef nonnull @.str.447, ptr noundef nonnull @xmpp_desegment)
  %7 = load i32, ptr @proto_xmpp, align 4
  tail call void @proto_register_field_array(i32 noundef %7, ptr noundef nonnull @proto_register_xmpp.hf, i32 noundef 149)
  tail call void @proto_register_subtree_array(ptr noundef nonnull @proto_register_xmpp.ett, i32 noundef 102)
  tail call void @proto_register_subtree_array(ptr noundef nonnull @proto_register_xmpp.ett_unknown_ptr, i32 noundef 20)
  %8 = load i32, ptr @proto_xmpp, align 4
  %9 = tail call ptr @expert_register_protocol(i32 noundef %8)
  tail call void @expert_register_field_array(ptr noundef %9, ptr noundef nonnull @proto_register_xmpp.ei, i32 noundef 13)
  %10 = load i32, ptr @proto_xmpp, align 4
  %11 = tail call ptr @register_dissector(ptr noundef nonnull @.str.444, ptr noundef nonnull @dissect_xmpp, i32 noundef %10)
  store ptr %11, ptr @xmpp_handle, align 8
  tail call void @xmpp_init_parsers()
  ret void
}